; ModuleID = '45/2392.c'
source_filename = "45/2392.c"
target datalayout = "e-m:e-p270:32:32-p271:32:32-p272:64:64-i64:64-f80:128-n8:16:32:64-S128"
target triple = "x86_64-pc-linux-gnu"

@.str = private unnamed_addr constant [5 x i8] c"%s%s\00", align 1
@.str.1 = private unnamed_addr constant [3 x i8] c"%d\00", align 1
@.str.2 = private unnamed_addr constant [6 x i8] c"error\00", align 1

; Function Attrs: noinline nounwind uwtable
define dso_local i32 @cap(i8* %0, i8* %1, i32 %2) #0 {
  %4 = alloca i32, align 4
  %5 = alloca i8*, align 8
  %6 = alloca i8*, align 8
  %7 = alloca i32, align 4
  %8 = alloca i32, align 4
  store i8* %0, i8** %5, align 8
  store i8* %1, i8** %6, align 8
  store i32 %2, i32* %7, align 4
  store i32 0, i32* %8, align 4
  br label %9

9:                                                ; preds = %33, %3
  %10 = load i32, i32* %8, align 4
  %11 = sext i32 %10 to i64
  %12 = load i8*, i8** %5, align 8
  %13 = call i64 @strlen(i8* %12) #3
  %14 = icmp ule i64 %11, %13
  br i1 %14, label %15, label %36

15:                                               ; preds = %9
  %16 = load i8*, i8** %5, align 8
  %17 = load i32, i32* %8, align 4
  %18 = sext i32 %17 to i64
  %19 = getelementptr inbounds i8, i8* %16, i64 %18
  %20 = load i8, i8* %19, align 1
  %21 = sext i8 %20 to i32
  %22 = load i8*, i8** %6, align 8
  %23 = load i32, i32* %8, align 4
  %24 = load i32, i32* %7, align 4
  %25 = add nsw i32 %23, %24
  %26 = sext i32 %25 to i64
  %27 = getelementptr inbounds i8, i8* %22, i64 %26
  %28 = load i8, i8* %27, align 1
  %29 = sext i8 %28 to i32
  %30 = icmp ne i32 %21, %29
  br i1 %30, label %31, label %32

31:                                               ; preds = %15
  br label %36

32:                                               ; preds = %15
  br label %33

33:                                               ; preds = %32
  %34 = load i32, i32* %8, align 4
  %35 = add nsw i32 %34, 1
  store i32 %35, i32* %8, align 4
  br label %9

36:                                               ; preds = %31, %9
  %37 = load i32, i32* %8, align 4
  %38 = sext i32 %37 to i64
  %39 = load i8*, i8** %5, align 8
  %40 = call i64 @strlen(i8* %39) #3
  %41 = icmp eq i64 %38, %40
  br i1 %41, label %49, label %42

42:                                               ; preds = %36
  %43 = load i32, i32* %8, align 4
  %44 = sext i32 %43 to i64
  %45 = load i8*, i8** %5, align 8
  %46 = call i64 @strlen(i8* %45) #3
  %47 = add i64 %46, 1
  %48 = icmp eq i64 %44, %47
  br i1 %48, label %49, label %50

49:                                               ; preds = %42, %36
  store i32 1, i32* %4, align 4
  br label %51

50:                                               ; preds = %42
  store i32 0, i32* %4, align 4
  br label %51

51:                                               ; preds = %50, %49
  %52 = load i32, i32* %4, align 4
  ret i32 %52
}

; Function Attrs: nounwind readonly
declare dso_local i64 @strlen(i8*) #1

; Function Attrs: noinline nounwind uwtable
define dso_local void @main() #0 {
  %1 = alloca [51 x i8], align 16
  %2 = alloca [51 x i8], align 16
  %3 = alloca i32, align 4
  %4 = alloca i32, align 4
  %5 = alloca i32, align 4
  %6 = getelementptr inbounds [51 x i8], [51 x i8]* %1, i64 0, i64 0
  %7 = getelementptr inbounds [51 x i8], [51 x i8]* %2, i64 0, i64 0
  %8 = call i32 (i8*, ...) @__isoc99_scanf(i8* getelementptr inbounds ([5 x i8], [5 x i8]* @.str, i64 0, i64 0), i8* %6, i8* %7)
  %9 = getelementptr inbounds [51 x i8], [51 x i8]* %2, i64 0, i64 0
  %10 = call i64 @strlen(i8* %9) #3
  %11 = trunc i64 %10 to i32
  store i32 %11, i32* %4, align 4
  %12 = getelementptr inbounds [51 x i8], [51 x i8]* %1, i64 0, i64 0
  %13 = call i64 @strlen(i8* %12) #3
  %14 = trunc i64 %13 to i32
  store i32 %14, i32* %5, align 4
  store i32 0, i32* %3, align 4
  br label %15

15:                                               ; preds = %31, %0
  %16 = load i32, i32* %3, align 4
  %17 = load i32, i32* %4, align 4
  %18 = load i32, i32* %5, align 4
  %19 = sub nsw i32 %17, %18
  %20 = icmp sle i32 %16, %19
  br i1 %20, label %21, label %34

21:                                               ; preds = %15
  %22 = getelementptr inbounds [51 x i8], [51 x i8]* %1, i64 0, i64 0
  %23 = getelementptr inbounds [51 x i8], [51 x i8]* %2, i64 0, i64 0
  %24 = load i32, i32* %3, align 4
  %25 = call i32 @cap(i8* %22, i8* %23, i32 %24)
  %26 = icmp eq i32 %25, 1
  br i1 %26, label %27, label %30

27:                                               ; preds = %21
  %28 = load i32, i32* %3, align 4
  %29 = call i32 (i8*, ...) @printf(i8* getelementptr inbounds ([3 x i8], [3 x i8]* @.str.1, i64 0, i64 0), i32 %28)
  br label %34

30:                                               ; preds = %21
  br label %31

31:                                               ; preds = %30
  %32 = load i32, i32* %3, align 4
  %33 = add nsw i32 %32, 1
  store i32 %33, i32* %3, align 4
  br label %15

34:                                               ; preds = %27, %15
  %35 = load i32, i32* %3, align 4
  %36 = load i32, i32* %4, align 4
  %37 = load i32, i32* %5, align 4
  %38 = sub nsw i32 %36, %37
  %39 = icmp sgt i32 %35, %38
  br i1 %39, label %40, label %42

40:                                               ; preds = %34
  %41 = call i32 (i8*, ...) @printf(i8* getelementptr inbounds ([6 x i8], [6 x i8]* @.str.2, i64 0, i64 0))
  br label %42

42:                                               ; preds = %40, %34
  ret void
}

declare dso_local i32 @__isoc99_scanf(i8*, ...) #2

declare dso_local i32 @printf(i8*, ...) #2


!llvm.module.flags = !{!0}
!llvm.ident = !{!1}

!0 = !{i32 1, !"wchar_size", i32 4}
!1 = !{!"clang version 10.0.0-4ubuntu1 "}
